target datalayout = "e-m:e-p270:32:32-p271:32:32-p272:64:64-i64:64-i128:128-f80:128-n8:16:32:64-S128"
target triple = "x86_64-pc-linux-gnu"

%struct.Vec_Ptr_t_ = type { i32, i32, ptr }

; Function Attrs: nounwind uwtable
define internal i32 @Vec_PtrSize(ptr noundef %0) #0 {
  %2 = alloca ptr, align 8
  store ptr %0, ptr %2, align 8
  %3 = load ptr, ptr %2, align 8
  %4 = getelementptr inbounds %struct.Vec_Ptr_t_, ptr %3, i32 0, i32 1
  %5 = load i32, ptr %4, align 4
  ret i32 %5
}

; Function Attrs: nounwind uwtable
define i32 @Bac_PtrMemoryArrayArray(ptr noundef %0) #0 {
  %2 = alloca ptr, align 8
  %3 = alloca ptr, align 8
  %4 = alloca i32, align 4
  %5 = alloca i32, align 4
  store ptr %0, ptr %2, align 8
  store i32 0, ptr %5, align 4
  store i32 0, ptr %4, align 4
  br label %6

6:                                                ; preds = %22, %1
  %7 = load i32, ptr %4, align 4
  %8 = load ptr, ptr %2, align 8
  %9 = call i32 @Vec_PtrSize(ptr noundef %8)
  %10 = icmp slt i32 %7, %9
  br i1 %10, label %11, label %15

11:                                               ; preds = %6
  %12 = load ptr, ptr %2, align 8
  %13 = load i32, ptr %4, align 4
  %14 = call ptr @Vec_PtrEntry(ptr noundef %12, i32 noundef %13)
  store ptr %14, ptr %3, align 8
  br label %15

15:                                               ; preds = %11, %6
  %16 = phi i1 [ false, %6 ], [ true, %11 ]
  br i1 %16, label %17, label %25

17:                                               ; preds = %15
  %18 = load ptr, ptr %3, align 8
  %19 = call i32 @Bac_PtrMemoryArray(ptr noundef %18)
  %20 = load i32, ptr %5, align 4
  %21 = add nsw i32 %20, %19
  store i32 %21, ptr %5, align 4
  br label %22

22:                                               ; preds = %17
  %23 = load i32, ptr %4, align 4
  %24 = add nsw i32 %23, 1
  store i32 %24, ptr %4, align 4
  br label %6, !llvm.loop !7

25:                                               ; preds = %15
  %26 = load i32, ptr %5, align 4
  ret i32 %26
}

; Function Attrs: nounwind uwtable
define i32 @Bac_PtrMemoryArray(ptr noundef %0) #0 {
  %2 = alloca ptr, align 8
  store ptr %0, ptr %2, align 8
  %3 = load ptr, ptr %2, align 8
  %4 = call double @Vec_PtrMemory(ptr noundef %3)
  %5 = fptosi double %4 to i32
  ret i32 %5
}

; Function Attrs: nounwind uwtable
define internal ptr @Vec_PtrEntry(ptr noundef %0, i32 noundef %1) #0 {
  %3 = alloca ptr, align 8
  %4 = alloca i32, align 4
  store ptr %0, ptr %3, align 8
  store i32 %1, ptr %4, align 4
  %5 = load ptr, ptr %3, align 8
  %6 = getelementptr inbounds %struct.Vec_Ptr_t_, ptr %5, i32 0, i32 2
  %7 = load ptr, ptr %6, align 8
  %8 = load i32, ptr %4, align 4
  %9 = sext i32 %8 to i64
  %10 = getelementptr inbounds ptr, ptr %7, i64 %9
  %11 = load ptr, ptr %10, align 8
  ret ptr %11
}

; Function Attrs: nounwind uwtable
define internal double @Vec_PtrMemory(ptr noundef %0) #0 {
  %2 = alloca ptr, align 8
  store ptr %0, ptr %2, align 8
  %3 = load ptr, ptr %2, align 8
  %4 = icmp ne ptr %3, null
  br i1 %4, label %6, label %5

5:                                                ; preds = %1
  br label %13

6:                                                ; preds = %1
  %7 = load ptr, ptr %2, align 8
  %8 = getelementptr inbounds %struct.Vec_Ptr_t_, ptr %7, i32 0, i32 0
  %9 = load i32, ptr %8, align 8
  %10 = sext i32 %9 to i64
  %11 = uitofp i64 %10 to double
  %12 = call double @llvm.fmuladd.f64(double 8.000000e+00, double %11, double 1.600000e+01)
  br label %13

13:                                               ; preds = %6, %5
  %14 = phi double [ 0.000000e+00, %5 ], [ %12, %6 ]
  ret double %14
}

; Function Attrs: nounwind uwtable
define i32 @Bac_PtrMemoryNtk(ptr noundef %0) #0 {
  %2 = alloca ptr, align 8
  %3 = alloca i32, align 4
  store ptr %0, ptr %2, align 8
  %4 = load ptr, ptr %2, align 8
  %5 = call double @Vec_PtrMemory(ptr noundef %4)
  %6 = fptosi double %5 to i32
  store i32 %6, ptr %3, align 4
  %7 = load ptr, ptr %2, align 8
  %8 = call ptr @Vec_PtrEntry(ptr noundef %7, i32 noundef 1)
  %9 = call i32 @Bac_PtrMemoryArray(ptr noundef %8)
  %10 = load i32, ptr %3, align 4
  %11 = add nsw i32 %10, %9
  store i32 %11, ptr %3, align 4
  %12 = load ptr, ptr %2, align 8
  %13 = call ptr @Vec_PtrEntry(ptr noundef %12, i32 noundef 2)
  %14 = call i32 @Bac_PtrMemoryArray(ptr noundef %13)
  %15 = load i32, ptr %3, align 4
  %16 = add nsw i32 %15, %14
  store i32 %16, ptr %3, align 4
  %17 = load ptr, ptr %2, align 8
  %18 = call ptr @Vec_PtrEntry(ptr noundef %17, i32 noundef 3)
  %19 = call i32 @Bac_PtrMemoryArrayArray(ptr noundef %18)
  %20 = load i32, ptr %3, align 4
  %21 = add nsw i32 %20, %19
  store i32 %21, ptr %3, align 4
  %22 = load ptr, ptr %2, align 8
  %23 = call ptr @Vec_PtrEntry(ptr noundef %22, i32 noundef 4)
  %24 = call i32 @Bac_PtrMemoryArrayArray(ptr noundef %23)
  %25 = load i32, ptr %3, align 4
  %26 = add nsw i32 %25, %24
  store i32 %26, ptr %3, align 4
  %27 = load i32, ptr %3, align 4
  ret i32 %27
}