; Function Attrs: nofree norecurse nosync nounwind memory(read, inaccessiblemem: none) uwtable
define i32 @Bac_PtrMemoryNtk(ptr noundef readonly %0) local_unnamed_addr #2 {
  %.not.i = icmp eq ptr %0, null
  br i1 %.not.i, label %Vec_PtrMemory.exit, label %2

2:                                                ; preds = %1
  %3 = load i32, ptr %0, align 8
  %4 = sext i32 %3 to i64
  %5 = uitofp i64 %4 to double
  %6 = tail call double @llvm.fmuladd.f64(double %5, double 8.000000e+00, double 1.600000e+01)
  %7 = fptosi double %6 to i32
  br label %Vec_PtrMemory.exit

Vec_PtrMemory.exit:                               ; preds = %1, %2
  %8 = phi i32 [ %7, %2 ], [ 0, %1 ]
  %9 = getelementptr i8, ptr %0, i64 8
  %.val11 = load ptr, ptr %9, align 8
  %10 = getelementptr inbounds nuw i8, ptr %.val11, i64 8
  %11 = load ptr, ptr %10, align 8
  %.not.i.i = icmp eq ptr %11, null
  br i1 %.not.i.i, label %Bac_PtrMemoryArray.exit, label %12

12:                                               ; preds = %Vec_PtrMemory.exit
  %13 = load i32, ptr %11, align 8
  %14 = sext i32 %13 to i64
  %15 = uitofp i64 %14 to double
  %16 = tail call double @llvm.fmuladd.f64(double %15, double 8.000000e+00, double 1.600000e+01)
  %17 = fptosi double %16 to i32
  br label %Bac_PtrMemoryArray.exit

Bac_PtrMemoryArray.exit:                          ; preds = %Vec_PtrMemory.exit, %12
  %18 = phi i32 [ %17, %12 ], [ 0, %Vec_PtrMemory.exit ]
  %19 = getelementptr inbounds nuw i8, ptr %.val11, i64 16
  %20 = load ptr, ptr %19, align 8
  %.not.i.i12 = icmp eq ptr %20, null
  br i1 %.not.i.i12, label %Bac_PtrMemoryArray.exit13, label %21

21:                                               ; preds = %Bac_PtrMemoryArray.exit
  %22 = load i32, ptr %20, align 8
  %23 = sext i32 %22 to i64
  %24 = uitofp i64 %23 to double
  %25 = tail call double @llvm.fmuladd.f64(double %24, double 8.000000e+00, double 1.600000e+01)
  %26 = fptosi double %25 to i32
  br label %Bac_PtrMemoryArray.exit13

Bac_PtrMemoryArray.exit13:                        ; preds = %Bac_PtrMemoryArray.exit, %21
  %27 = phi i32 [ %26, %21 ], [ 0, %Bac_PtrMemoryArray.exit ]
  %28 = getelementptr inbounds nuw i8, ptr %.val11, i64 24
  %29 = load ptr, ptr %28, align 8
  %30 = getelementptr i8, ptr %29, i64 4
  %.val8.i = load i32, ptr %30, align 4
  %31 = icmp sgt i32 %.val8.i, 0
  br i1 %31, label %.lr.ph.i, label %Bac_PtrMemoryArrayArray.exit

.lr.ph.i:                                         ; preds = %Bac_PtrMemoryArray.exit13
  %32 = getelementptr i8, ptr %29, i64 8
  %.val.i = load ptr, ptr %32, align 8
  %wide.trip.count.i = zext nneg i32 %.val8.i to i64
  br label %33

33:                                               ; preds = %Bac_PtrMemoryArray.exit.i, %.lr.ph.i
  %indvars.iv.i = phi i64 [ 0, %.lr.ph.i ], [ %indvars.iv.next.i, %Bac_PtrMemoryArray.exit.i ]
  %.010.i = phi i32 [ 0, %.lr.ph.i ], [ %43, %Bac_PtrMemoryArray.exit.i ]
  %34 = getelementptr inbounds nuw ptr, ptr %.val.i, i64 %indvars.iv.i
  %35 = load ptr, ptr %34, align 8
  %.not.i.i.i = icmp eq ptr %35, null
  br i1 %.not.i.i.i, label %Bac_PtrMemoryArray.exit.i, label %36

36:                                               ; preds = %33
  %37 = load i32, ptr %35, align 8
  %38 = sext i32 %37 to i64
  %39 = uitofp i64 %38 to double
  %40 = tail call double @llvm.fmuladd.f64(double %39, double 8.000000e+00, double 1.600000e+01)
  %41 = fptosi double %40 to i32
  br label %Bac_PtrMemoryArray.exit.i

Bac_PtrMemoryArray.exit.i:                        ; preds = %36, %33
  %42 = phi i32 [ %41, %36 ], [ 0, %33 ]
  %43 = add nsw i32 %42, %.010.i
  %indvars.iv.next.i = add nuw nsw i64 %indvars.iv.i, 1
  %exitcond.not.i = icmp eq i64 %indvars.iv.next.i, %wide.trip.count.i
  br i1 %exitcond.not.i, label %Bac_PtrMemoryArrayArray.exit, label %33, !llvm.loop !7

Bac_PtrMemoryArrayArray.exit:                     ; preds = %Bac_PtrMemoryArray.exit.i, %Bac_PtrMemoryArray.exit13
  %.0.lcssa.i = phi i32 [ 0, %Bac_PtrMemoryArray.exit13 ], [ %43, %Bac_PtrMemoryArray.exit.i ]
  %44 = getelementptr inbounds nuw i8, ptr %.val11, i64 32
  %45 = load ptr, ptr %44, align 8
  %46 = getelementptr i8, ptr %45, i64 4
  %.val8.i14 = load i32, ptr %46, align 4
  %47 = icmp sgt i32 %.val8.i14, 0
  br i1 %47, label %.lr.ph.i16, label %Bac_PtrMemoryArrayArray.exit25

.lr.ph.i16:                                       ; preds = %Bac_PtrMemoryArrayArray.exit
  %48 = getelementptr i8, ptr %45, i64 8
  %.val.i17 = load ptr, ptr %48, align 8
  %wide.trip.count.i18 = zext nneg i32 %.val8.i14 to i64
  br label %49

49:                                               ; preds = %Bac_PtrMemoryArray.exit.i22, %.lr.ph.i16
  %indvars.iv.i19 = phi i64 [ 0, %.lr.ph.i16 ], [ %indvars.iv.next.i23, %Bac_PtrMemoryArray.exit.i22 ]
  %.010.i20 = phi i32 [ 0, %.lr.ph.i16 ], [ %59, %Bac_PtrMemoryArray.exit.i22 ]
  %50 = getelementptr inbounds nuw ptr, ptr %.val.i17, i64 %indvars.iv.i19
  %51 = load ptr, ptr %50, align 8
  %.not.i.i.i21 = icmp eq ptr %51, null
  br i1 %.not.i.i.i21, label %Bac_PtrMemoryArray.exit.i22, label %52

52:                                               ; preds = %49
  %53 = load i32, ptr %51, align 8
  %54 = sext i32 %53 to i64
  %55 = uitofp i64 %54 to double
  %56 = tail call double @llvm.fmuladd.f64(double %55, double 8.000000e+00, double 1.600000e+01)
  %57 = fptosi double %56 to i32
  br label %Bac_PtrMemoryArray.exit.i22

Bac_PtrMemoryArray.exit.i22:                      ; preds = %52, %49
  %58 = phi i32 [ %57, %52 ], [ 0, %49 ]
  %59 = add nsw i32 %58, %.010.i20
  %indvars.iv.next.i23 = add nuw nsw i64 %indvars.iv.i19, 1
  %exitcond.not.i24 = icmp eq i64 %indvars.iv.next.i23, %wide.trip.count.i18
  br i1 %exitcond.not.i24, label %Bac_PtrMemoryArrayArray.exit25, label %49, !llvm.loop !7

Bac_PtrMemoryArrayArray.exit25:                   ; preds = %Bac_PtrMemoryArray.exit.i22, %Bac_PtrMemoryArrayArray.exit
  %.0.lcssa.i15 = phi i32 [ 0, %Bac_PtrMemoryArrayArray.exit ], [ %59, %Bac_PtrMemoryArray.exit.i22 ]
  %60 = add nsw i32 %18, %8
  %61 = add nsw i32 %60, %27
  %62 = add nsw i32 %61, %.0.lcssa.i
  %63 = add nsw i32 %62, %.0.lcssa.i15
  ret i32 %63
}